target datalayout = "e-m:e-p270:32:32-p271:32:32-p272:64:64-i64:64-i128:128-f80:128-n8:16:32:64-S128"
target triple = "x86_64-pc-linux-gnu"

@.str.7 = private unnamed_addr constant [3 x i8] c"\\\\\00", align 1
@.str.8 = private unnamed_addr constant [5 x i8] c"%03o\00", align 1

; Function Attrs: nounwind uwtable
define i32 @gvputc(ptr noundef %0, i32 noundef %1) #0 {
  %3 = alloca i32, align 4
  %4 = alloca ptr, align 8
  %5 = alloca i32, align 4
  %6 = alloca i8, align 1
  %7 = alloca i32, align 4
  store ptr %0, ptr %4, align 8, !tbaa !3
  store i32 %1, ptr %5, align 4, !tbaa !58
  call void @llvm.lifetime.start.p0(i64 1, ptr %6) #14
  %8 = load i32, ptr %5, align 4, !tbaa !58
  %9 = trunc i32 %8 to i8
  store i8 %9, ptr %6, align 1, !tbaa !76
  %10 = load ptr, ptr %4, align 8, !tbaa !3
  %11 = call i64 @gvwrite(ptr noundef %10, ptr noundef %6, i64 noundef 1)
  %12 = icmp ne i64 %11, 1
  br i1 %12, label %13, label %14

13:                                               ; preds = %2
  store i32 -1, ptr %3, align 4
  store i32 1, ptr %7, align 4
  br label %16

14:                                               ; preds = %2
  %15 = load i32, ptr %5, align 4, !tbaa !58
  store i32 %15, ptr %3, align 4
  store i32 1, ptr %7, align 4
  br label %16

16:                                               ; preds = %14, %13
  call void @llvm.lifetime.end.p0(i64 1, ptr %6) #14
  %17 = load i32, ptr %3, align 4
  ret i32 %17
}

; Function Attrs: nounwind uwtable
define i32 @gvputs(ptr noundef %0, ptr noundef %1) #0 {
  %3 = alloca i32, align 4
  %4 = alloca ptr, align 8
  %5 = alloca ptr, align 8
  %6 = alloca i64, align 8
  %7 = alloca i32, align 4
  store ptr %0, ptr %4, align 8, !tbaa !3
  store ptr %1, ptr %5, align 8, !tbaa !73
  call void @llvm.lifetime.start.p0(i64 8, ptr %6) #14
  %8 = load ptr, ptr %5, align 8, !tbaa !73
  %9 = call i64 @strlen(ptr noundef %8) #16
  store i64 %9, ptr %6, align 8, !tbaa !71
  %10 = load ptr, ptr %4, align 8, !tbaa !3
  %11 = load ptr, ptr %5, align 8, !tbaa !73
  %12 = load i64, ptr %6, align 8, !tbaa !71
  %13 = call i64 @gvwrite(ptr noundef %10, ptr noundef %11, i64 noundef %12)
  %14 = load i64, ptr %6, align 8, !tbaa !71
  %15 = icmp ne i64 %13, %14
  br i1 %15, label %16, label %17

16:                                               ; preds = %2
  store i32 -1, ptr %3, align 4
  store i32 1, ptr %7, align 4
  br label %18

17:                                               ; preds = %2
  store i32 1, ptr %3, align 4
  store i32 1, ptr %7, align 4
  br label %18

18:                                               ; preds = %17, %16
  call void @llvm.lifetime.end.p0(i64 8, ptr %6) #14
  %19 = load i32, ptr %3, align 4
  ret i32 %19
}

; Function Attrs: nounwind uwtable
define void @gvputs_nonascii(ptr noundef %0, ptr noundef %1) #0 {
  %3 = alloca ptr, align 8
  %4 = alloca ptr, align 8
  store ptr %0, ptr %3, align 8, !tbaa !3
  store ptr %1, ptr %4, align 8, !tbaa !73
  br label %5

5:                                                ; preds = %37, %2
  %6 = load ptr, ptr %4, align 8, !tbaa !73
  %7 = load i8, ptr %6, align 1, !tbaa !76
  %8 = sext i8 %7 to i32
  %9 = icmp ne i32 %8, 0
  br i1 %9, label %10, label %40

10:                                               ; preds = %5
  %11 = load ptr, ptr %4, align 8, !tbaa !73
  %12 = load i8, ptr %11, align 1, !tbaa !76
  %13 = sext i8 %12 to i32
  %14 = icmp eq i32 %13, 92
  br i1 %14, label %15, label %18

15:                                               ; preds = %10
  %16 = load ptr, ptr %3, align 8, !tbaa !3
  %17 = call i32 @gvputs(ptr noundef %16, ptr noundef @.str.7)
  br label %36

18:                                               ; preds = %10
  %19 = load ptr, ptr %4, align 8, !tbaa !73
  %20 = load i8, ptr %19, align 1, !tbaa !76
  %21 = sext i8 %20 to i32
  %22 = and i32 %21, -128
  %23 = icmp eq i32 %22, 0
  br i1 %23, label %24, label %30

24:                                               ; preds = %18
  %25 = load ptr, ptr %3, align 8, !tbaa !3
  %26 = load ptr, ptr %4, align 8, !tbaa !73
  %27 = load i8, ptr %26, align 1, !tbaa !76
  %28 = sext i8 %27 to i32
  %29 = call i32 @gvputc(ptr noundef %25, i32 noundef %28)
  br label %35

30:                                               ; preds = %18
  %31 = load ptr, ptr %3, align 8, !tbaa !3
  %32 = load ptr, ptr %4, align 8, !tbaa !73
  %33 = load i8, ptr %32, align 1, !tbaa !76
  %34 = sext i8 %33 to i32
  call void (ptr, ptr, ...) @gvprintf(ptr noundef %31, ptr noundef @.str.8, i32 noundef %34)
  br label %35

35:                                               ; preds = %30, %24
  br label %36

36:                                               ; preds = %35, %15
  br label %37

37:                                               ; preds = %36
  %38 = load ptr, ptr %4, align 8, !tbaa !73
  %39 = getelementptr inbounds nuw i8, ptr %38, i32 1
  store ptr %39, ptr %4, align 8, !tbaa !73
  br label %5, !llvm.loop !84

40:                                               ; preds = %5
  ret void
}