; Function Attrs: nounwind uwtable
define void @gvputs_nonascii(ptr noundef %0, ptr noundef readonly captures(none) %1) local_unnamed_addr #0 {
  %3 = alloca i8, align 1
  br label %4

4:                                                ; preds = %14, %2
  %.0 = phi ptr [ %1, %2 ], [ %15, %14 ]
  %5 = load i8, ptr %.0, align 1, !tbaa !54
  %6 = sext i8 %5 to i32
  switch i8 %5, label %9 [
    i8 0, label %16
    i8 92, label %7
  ]

7:                                                ; preds = %4
  %8 = call i64 @gvwrite(ptr noundef %0, ptr noundef nonnull @.str.7, i64 noundef 2)
  br label %14

9:                                                ; preds = %4
  %10 = icmp sgt i8 %5, -1
  br i1 %10, label %11, label %13

11:                                               ; preds = %9
  call void @llvm.lifetime.start.p0(i64 1, ptr nonnull %3) #21
  store i8 %5, ptr %3, align 1, !tbaa !54
  %12 = call i64 @gvwrite(ptr noundef %0, ptr noundef nonnull %3, i64 noundef 1)
  call void @llvm.lifetime.end.p0(i64 1, ptr nonnull %3) #21
  br label %14

13:                                               ; preds = %9
  call void (ptr, ptr, ...) @gvprintf(ptr noundef %0, ptr noundef nonnull @.str.8, i32 noundef %6)
  br label %14

14:                                               ; preds = %7, %13, %11
  %15 = getelementptr inbounds nuw i8, ptr %.0, i64 1
  br label %4, !llvm.loop !75

16:                                               ; preds = %4
  ret void
}